target datalayout = "e-m:e-p270:32:32-p271:32:32-p272:64:64-i64:64-i128:128-f80:128-n8:16:32:64-S128"
target triple = "x86_64-pc-linux-gnu"

%struct.strbuf = type { i64, i64, ptr }
%struct.child_process = type { %struct.strvec, %struct.strvec, i32, i32, i64, ptr, ptr, i32, i32, i32, ptr, i16, ptr }
%struct.strvec = type { ptr, i64, i64 }

@.str.31 = private unnamed_addr constant [12 x i8] c"child_start\00", align 1
@__const.fn_child_start_fl.buf_payload = private unnamed_addr constant %struct.strbuf { i64 0, i64 0, ptr @strbuf_slopbuf }, align 8
@.str.32 = private unnamed_addr constant [26 x i8] c"[ch%d] class:hook hook:%s\00", align 1
@.str.33 = private unnamed_addr constant [2 x i8] c"?\00", align 1
@.str.34 = private unnamed_addr constant [16 x i8] c"[ch%d] class:%s\00", align 1
@.str.35 = private unnamed_addr constant [5 x i8] c" cd:\00", align 1
@.str.36 = private unnamed_addr constant [8 x i8] c" argv:[\00", align 1
@.str.37 = private unnamed_addr constant [4 x i8] c"git\00", align 1

; Function Attrs: inlinehint nounwind uwtable
define internal i64 @strbuf_avail(ptr noundef %0) #4 {
  %2 = alloca ptr, align 8
  store ptr %0, ptr %2, align 8, !tbaa !81
  %3 = load ptr, ptr %2, align 8, !tbaa !81
  %4 = getelementptr inbounds nuw %struct.strbuf, ptr %3, i32 0, i32 0
  %5 = load i64, ptr %4, align 8, !tbaa !97
  %6 = icmp ne i64 %5, 0
  br i1 %6, label %7, label %16

7:                                                ; preds = %1
  %8 = load ptr, ptr %2, align 8, !tbaa !81
  %9 = getelementptr inbounds nuw %struct.strbuf, ptr %8, i32 0, i32 0
  %10 = load i64, ptr %9, align 8, !tbaa !97
  %11 = load ptr, ptr %2, align 8, !tbaa !81
  %12 = getelementptr inbounds nuw %struct.strbuf, ptr %11, i32 0, i32 1
  %13 = load i64, ptr %12, align 8, !tbaa !87
  %14 = sub i64 %10, %13
  %15 = sub i64 %14, 1
  br label %17

16:                                               ; preds = %1
  br label %17

17:                                               ; preds = %16, %7
  %18 = phi i64 [ %15, %7 ], [ 0, %16 ]
  ret i64 %18
}

; Function Attrs: inlinehint nounwind uwtable
define internal void @strbuf_addch(ptr noundef %0, i32 noundef %1) #4 {
  %3 = alloca ptr, align 8
  %4 = alloca i32, align 4
  store ptr %0, ptr %3, align 8, !tbaa !81
  store i32 %1, ptr %4, align 4, !tbaa !4
  %5 = load ptr, ptr %3, align 8, !tbaa !81
  %6 = call i64 @strbuf_avail(ptr noundef %5)
  %7 = icmp ne i64 %6, 0
  br i1 %7, label %10, label %8

8:                                                ; preds = %2
  %9 = load ptr, ptr %3, align 8, !tbaa !81
  call void @strbuf_grow(ptr noundef %9, i64 noundef 1)
  br label %10

10:                                               ; preds = %8, %2
  %11 = load i32, ptr %4, align 4, !tbaa !4
  %12 = trunc i32 %11 to i8
  %13 = load ptr, ptr %3, align 8, !tbaa !81
  %14 = getelementptr inbounds nuw %struct.strbuf, ptr %13, i32 0, i32 2
  %15 = load ptr, ptr %14, align 8, !tbaa !32
  %16 = load ptr, ptr %3, align 8, !tbaa !81
  %17 = getelementptr inbounds nuw %struct.strbuf, ptr %16, i32 0, i32 1
  %18 = load i64, ptr %17, align 8, !tbaa !87
  %19 = add i64 %18, 1
  store i64 %19, ptr %17, align 8, !tbaa !87
  %20 = getelementptr inbounds nuw i8, ptr %15, i64 %18
  store i8 %12, ptr %20, align 1, !tbaa !11
  %21 = load ptr, ptr %3, align 8, !tbaa !81
  %22 = getelementptr inbounds nuw %struct.strbuf, ptr %21, i32 0, i32 2
  %23 = load ptr, ptr %22, align 8, !tbaa !32
  %24 = load ptr, ptr %3, align 8, !tbaa !81
  %25 = getelementptr inbounds nuw %struct.strbuf, ptr %24, i32 0, i32 1
  %26 = load i64, ptr %25, align 8, !tbaa !87
  %27 = getelementptr inbounds nuw i8, ptr %23, i64 %26
  store i8 0, ptr %27, align 1, !tbaa !11
  ret void
}

; Function Attrs: inlinehint nounwind uwtable
define internal void @strbuf_addstr(ptr noundef %0, ptr noundef %1) #4 {
  %3 = alloca ptr, align 8
  %4 = alloca ptr, align 8
  store ptr %0, ptr %3, align 8, !tbaa !81
  store ptr %1, ptr %4, align 8, !tbaa !8
  %5 = load ptr, ptr %3, align 8, !tbaa !81
  %6 = load ptr, ptr %4, align 8, !tbaa !8
  %7 = load ptr, ptr %4, align 8, !tbaa !8
  %8 = call i64 @strlen(ptr noundef %7) #10
  call void @strbuf_add(ptr noundef %5, ptr noundef %6, i64 noundef %8)
  ret void
}

; Function Attrs: nounwind uwtable
define internal void @fn_child_start_fl(ptr noundef %0, i32 noundef %1, i64 noundef %2, ptr noundef %3) #0 {
  %5 = alloca ptr, align 8
  %6 = alloca i32, align 4
  %7 = alloca i64, align 8
  %8 = alloca ptr, align 8
  %9 = alloca ptr, align 8
  %10 = alloca %struct.strbuf, align 8
  %11 = alloca ptr, align 8
  store ptr %0, ptr %5, align 8, !tbaa !8
  store i32 %1, ptr %6, align 4, !tbaa !4
  store i64 %2, ptr %7, align 8, !tbaa !12
  store ptr %3, ptr %8, align 8, !tbaa !18
  call void @llvm.lifetime.start.p0(i64 8, ptr %9) #9
  store ptr @.str.31, ptr %9, align 8, !tbaa !8
  call void @llvm.lifetime.start.p0(i64 24, ptr %10) #9
  call void @llvm.memcpy.p0.p0.i64(ptr align 8 %10, ptr align 8 @__const.fn_child_start_fl.buf_payload, i64 24, i1 false)
  %12 = load ptr, ptr %8, align 8, !tbaa !18
  %13 = getelementptr inbounds nuw %struct.child_process, ptr %12, i32 0, i32 6
  %14 = load ptr, ptr %13, align 8, !tbaa !20
  %15 = icmp ne ptr %14, null
  br i1 %15, label %16, label %23

16:                                               ; preds = %4
  %17 = load ptr, ptr %8, align 8, !tbaa !18
  %18 = getelementptr inbounds nuw %struct.child_process, ptr %17, i32 0, i32 3
  %19 = load i32, ptr %18, align 4, !tbaa !23
  %20 = load ptr, ptr %8, align 8, !tbaa !18
  %21 = getelementptr inbounds nuw %struct.child_process, ptr %20, i32 0, i32 6
  %22 = load ptr, ptr %21, align 8, !tbaa !20
  call void (ptr, ptr, ...) @strbuf_addf(ptr noundef %10, ptr noundef @.str.32, i32 noundef %19, ptr noundef %22)
  br label %39

23:                                               ; preds = %4
  call void @llvm.lifetime.start.p0(i64 8, ptr %11) #9
  %24 = load ptr, ptr %8, align 8, !tbaa !18
  %25 = getelementptr inbounds nuw %struct.child_process, ptr %24, i32 0, i32 5
  %26 = load ptr, ptr %25, align 8, !tbaa !24
  %27 = icmp ne ptr %26, null
  br i1 %27, label %28, label %32

28:                                               ; preds = %23
  %29 = load ptr, ptr %8, align 8, !tbaa !18
  %30 = getelementptr inbounds nuw %struct.child_process, ptr %29, i32 0, i32 5
  %31 = load ptr, ptr %30, align 8, !tbaa !24
  br label %33

32:                                               ; preds = %23
  br label %33

33:                                               ; preds = %32, %28
  %34 = phi ptr [ %31, %28 ], [ @.str.33, %32 ]
  store ptr %34, ptr %11, align 8, !tbaa !8
  %35 = load ptr, ptr %8, align 8, !tbaa !18
  %36 = getelementptr inbounds nuw %struct.child_process, ptr %35, i32 0, i32 3
  %37 = load i32, ptr %36, align 4, !tbaa !23
  %38 = load ptr, ptr %11, align 8, !tbaa !8
  call void (ptr, ptr, ...) @strbuf_addf(ptr noundef %10, ptr noundef @.str.34, i32 noundef %37, ptr noundef %38)
  call void @llvm.lifetime.end.p0(i64 8, ptr %11) #9
  br label %39

39:                                               ; preds = %33, %16
  %40 = load ptr, ptr %8, align 8, !tbaa !18
  %41 = getelementptr inbounds nuw %struct.child_process, ptr %40, i32 0, i32 10
  %42 = load ptr, ptr %41, align 8, !tbaa !25
  %43 = icmp ne ptr %42, null
  br i1 %43, label %44, label %48

44:                                               ; preds = %39
  call void @strbuf_addstr(ptr noundef %10, ptr noundef @.str.35)
  %45 = load ptr, ptr %8, align 8, !tbaa !18
  %46 = getelementptr inbounds nuw %struct.child_process, ptr %45, i32 0, i32 10
  %47 = load ptr, ptr %46, align 8, !tbaa !25
  call void @sq_quote_buf_pretty(ptr noundef %10, ptr noundef %47)
  br label %48

48:                                               ; preds = %44, %39
  call void @strbuf_addstr(ptr noundef %10, ptr noundef @.str.36)
  %49 = load ptr, ptr %8, align 8, !tbaa !18
  %50 = getelementptr inbounds nuw %struct.child_process, ptr %49, i32 0, i32 11
  %51 = load i16, ptr %50, align 8
  %52 = lshr i16 %51, 3
  %53 = and i16 %52, 1
  %54 = zext i16 %53 to i32
  %55 = icmp ne i32 %54, 0
  br i1 %55, label %56, label %64

56:                                               ; preds = %48
  call void @strbuf_addstr(ptr noundef %10, ptr noundef @.str.37)
  %57 = load ptr, ptr %8, align 8, !tbaa !18
  %58 = getelementptr inbounds nuw %struct.child_process, ptr %57, i32 0, i32 0
  %59 = getelementptr inbounds nuw %struct.strvec, ptr %58, i32 0, i32 1
  %60 = load i64, ptr %59, align 8, !tbaa !26
  %61 = icmp ne i64 %60, 0
  br i1 %61, label %62, label %63

62:                                               ; preds = %56
  call void @strbuf_addch(ptr noundef %10, i32 noundef 32)
  br label %63

63:                                               ; preds = %62, %56
  br label %64

64:                                               ; preds = %63, %48
  %65 = load ptr, ptr %8, align 8, !tbaa !18
  %66 = getelementptr inbounds nuw %struct.child_process, ptr %65, i32 0, i32 0
  %67 = getelementptr inbounds nuw %struct.strvec, ptr %66, i32 0, i32 0
  %68 = load ptr, ptr %67, align 8, !tbaa !27
  call void @sq_append_quote_argv_pretty(ptr noundef %10, ptr noundef %68)
  call void @strbuf_addch(ptr noundef %10, i32 noundef 93)
  %69 = load ptr, ptr %5, align 8, !tbaa !8
  %70 = load i32, ptr %6, align 4, !tbaa !4
  %71 = load ptr, ptr %9, align 8, !tbaa !8
  call void @perf_io_write_fl(ptr noundef %69, i32 noundef %70, ptr noundef %71, ptr noundef null, ptr noundef %7, ptr noundef null, ptr noundef null, ptr noundef %10)
  call void @strbuf_release(ptr noundef %10)
  call void @llvm.lifetime.end.p0(i64 24, ptr %10) #9
  call void @llvm.lifetime.end.p0(i64 8, ptr %9) #9
  ret void
}