; Function Attrs: nounwind uwtable
define internal void @fn_child_start_fl(ptr noundef %0, i32 noundef %1, i64 noundef %2, ptr noundef readonly captures(none) %3) #0 {
  %5 = alloca i64, align 8
  %6 = alloca %struct.strbuf, align 8
  store i64 %2, ptr %5, align 8, !tbaa !9
  call void @llvm.lifetime.start.p0(i64 24, ptr nonnull %6) #7
  call void @llvm.memcpy.p0.p0.i64(ptr noundef nonnull align 8 dereferenceable(24) %6, ptr noundef nonnull align 8 dereferenceable(24) @__const.fn_counter.buf_payload, i64 24, i1 false)
  %7 = getelementptr inbounds nuw i8, ptr %3, i64 72
  %8 = load ptr, ptr %7, align 8, !tbaa !17
  %.not = icmp eq ptr %8, null
  br i1 %.not, label %12, label %9

9:                                                ; preds = %4
  %10 = getelementptr inbounds nuw i8, ptr %3, i64 52
  %11 = load i32, ptr %10, align 4, !tbaa !21
  call void (ptr, ptr, ...) @strbuf_addf(ptr noundef nonnull %6, ptr noundef nonnull @.str.32, i32 noundef %11, ptr noundef nonnull %8) #7
  br label %17

12:                                               ; preds = %4
  %13 = getelementptr inbounds nuw i8, ptr %3, i64 64
  %14 = load ptr, ptr %13, align 8, !tbaa !22
  %.not15 = icmp eq ptr %14, null
  %spec.select = select i1 %.not15, ptr @.str.33, ptr %14
  %15 = getelementptr inbounds nuw i8, ptr %3, i64 52
  %16 = load i32, ptr %15, align 4, !tbaa !21
  call void (ptr, ptr, ...) @strbuf_addf(ptr noundef nonnull %6, ptr noundef nonnull @.str.34, i32 noundef %16, ptr noundef nonnull %spec.select) #7
  br label %17

17:                                               ; preds = %12, %9
  %18 = getelementptr inbounds nuw i8, ptr %3, i64 96
  %19 = load ptr, ptr %18, align 8, !tbaa !23
  %.not16 = icmp eq ptr %19, null
  br i1 %.not16, label %22, label %20

20:                                               ; preds = %17
  call void @strbuf_add(ptr noundef nonnull %6, ptr noundef nonnull @.str.35, i64 noundef 4) #7
  %21 = load ptr, ptr %18, align 8, !tbaa !23
  call void @sq_quote_buf_pretty(ptr noundef nonnull %6, ptr noundef %21) #7
  br label %22

22:                                               ; preds = %20, %17
  call void @strbuf_add(ptr noundef nonnull %6, ptr noundef nonnull @.str.36, i64 noundef 7) #7
  %23 = getelementptr inbounds nuw i8, ptr %3, i64 104
  %24 = load i16, ptr %23, align 8
  %25 = and i16 %24, 8
  %.not17 = icmp eq i16 %25, 0
  br i1 %.not17, label %41, label %26

26:                                               ; preds = %22
  call void @strbuf_add(ptr noundef nonnull %6, ptr noundef nonnull @.str.37, i64 noundef 3) #7
  %27 = getelementptr inbounds nuw i8, ptr %3, i64 8
  %28 = load i64, ptr %27, align 8, !tbaa !24
  %.not18 = icmp eq i64 %28, 0
  br i1 %.not18, label %41, label %29

29:                                               ; preds = %26
  %30 = load i64, ptr %6, align 8, !tbaa !11
  %.not.i.i = icmp eq i64 %30, 0
  br i1 %.not.i.i, label %strbuf_avail.exit.thread.i, label %strbuf_avail.exit.i

strbuf_avail.exit.i:                              ; preds = %29
  %31 = getelementptr inbounds nuw i8, ptr %6, i64 8
  %32 = load i64, ptr %31, align 8, !tbaa !15
  %.neg.i = add i64 %32, 1
  %.not.i = icmp eq i64 %30, %.neg.i
  br i1 %.not.i, label %strbuf_avail.exit.thread.i, label %strbuf_addch.exit

strbuf_avail.exit.thread.i:                       ; preds = %strbuf_avail.exit.i, %29
  call void @strbuf_grow(ptr noundef nonnull %6, i64 noundef 1) #7
  %.phi.trans.insert.i = getelementptr inbounds nuw i8, ptr %6, i64 8
  %.pre.i = load i64, ptr %.phi.trans.insert.i, align 8, !tbaa !15
  %.pre7.i = add i64 %.pre.i, 1
  br label %strbuf_addch.exit

strbuf_addch.exit:                                ; preds = %strbuf_avail.exit.i, %strbuf_avail.exit.thread.i
  %.pre-phi.i = phi i64 [ %.pre7.i, %strbuf_avail.exit.thread.i ], [ %.neg.i, %strbuf_avail.exit.i ]
  %33 = phi i64 [ %.pre.i, %strbuf_avail.exit.thread.i ], [ %32, %strbuf_avail.exit.i ]
  %34 = getelementptr inbounds nuw i8, ptr %6, i64 16
  %35 = load ptr, ptr %34, align 8, !tbaa !16
  %36 = getelementptr inbounds nuw i8, ptr %6, i64 8
  store i64 %.pre-phi.i, ptr %36, align 8, !tbaa !15
  %37 = getelementptr inbounds nuw i8, ptr %35, i64 %33
  store i8 32, ptr %37, align 1, !tbaa !4
  %38 = load ptr, ptr %34, align 8, !tbaa !16
  %39 = load i64, ptr %36, align 8, !tbaa !15
  %40 = getelementptr inbounds nuw i8, ptr %38, i64 %39
  store i8 0, ptr %40, align 1, !tbaa !4
  br label %41

41:                                               ; preds = %26, %strbuf_addch.exit, %22
  %42 = load ptr, ptr %3, align 8, !tbaa !25
  call void @sq_append_quote_argv_pretty(ptr noundef nonnull %6, ptr noundef %42) #7
  %43 = load i64, ptr %6, align 8, !tbaa !11
  %.not.i.i19 = icmp eq i64 %43, 0
  br i1 %.not.i.i19, label %strbuf_avail.exit.thread.i24, label %strbuf_avail.exit.i20

strbuf_avail.exit.i20:                            ; preds = %41
  %44 = getelementptr inbounds nuw i8, ptr %6, i64 8
  %45 = load i64, ptr %44, align 8, !tbaa !15
  %.neg.i21 = add i64 %45, 1
  %.not.i22 = icmp eq i64 %43, %.neg.i21
  br i1 %.not.i22, label %strbuf_avail.exit.thread.i24, label %strbuf_addch.exit28

strbuf_avail.exit.thread.i24:                     ; preds = %strbuf_avail.exit.i20, %41
  call void @strbuf_grow(ptr noundef nonnull %6, i64 noundef 1) #7
  %.phi.trans.insert.i25 = getelementptr inbounds nuw i8, ptr %6, i64 8
  %.pre.i26 = load i64, ptr %.phi.trans.insert.i25, align 8, !tbaa !15
  %.pre7.i27 = add i64 %.pre.i26, 1
  br label %strbuf_addch.exit28

strbuf_addch.exit28:                              ; preds = %strbuf_avail.exit.i20, %strbuf_avail.exit.thread.i24
  %.pre-phi.i23 = phi i64 [ %.pre7.i27, %strbuf_avail.exit.thread.i24 ], [ %.neg.i21, %strbuf_avail.exit.i20 ]
  %46 = phi i64 [ %.pre.i26, %strbuf_avail.exit.thread.i24 ], [ %45, %strbuf_avail.exit.i20 ]
  %47 = getelementptr inbounds nuw i8, ptr %6, i64 16
  %48 = load ptr, ptr %47, align 8, !tbaa !16
  %49 = getelementptr inbounds nuw i8, ptr %6, i64 8
  store i64 %.pre-phi.i23, ptr %49, align 8, !tbaa !15
  %50 = getelementptr inbounds nuw i8, ptr %48, i64 %46
  store i8 93, ptr %50, align 1, !tbaa !4
  %51 = load ptr, ptr %47, align 8, !tbaa !16
  %52 = load i64, ptr %49, align 8, !tbaa !15
  %53 = getelementptr inbounds nuw i8, ptr %51, i64 %52
  store i8 0, ptr %53, align 1, !tbaa !4
  call fastcc void @perf_io_write_fl(ptr noundef %0, i32 noundef %1, ptr noundef nonnull @.str.31, ptr noundef null, ptr noundef nonnull %5, ptr noundef null, ptr noundef null, ptr noundef %6)
  call void @strbuf_release(ptr noundef nonnull %6) #7
  call void @llvm.lifetime.end.p0(i64 24, ptr nonnull %6) #7
  ret void
}